; Function Attrs: inlinehint nounwind uwtable
define internal fastcc noalias noundef ptr @Mop_ManCreateGroups(ptr noundef readonly captures(none) %0) unnamed_addr #7 {
  %2 = load i32, ptr %0, align 8, !tbaa !3
  %3 = tail call noalias dereferenceable_or_null(16) ptr @malloc(i64 noundef 16) #22
  %4 = add i32 %2, -1
  %or.cond.i.i = icmp ult i32 %4, 7
  %spec.store.select.i.i = select i1 %or.cond.i.i, i32 8, i32 %2
  store i32 %spec.store.select.i.i, ptr %3, align 8, !tbaa !91
  %.not.i.i = icmp eq i32 %spec.store.select.i.i, 0
  br i1 %.not.i.i, label %Vec_WecStart.exit, label %5

5:                                                ; preds = %1
  %6 = sext i32 %spec.store.select.i.i to i64
  %7 = tail call noalias ptr @calloc(i64 noundef %6, i64 noundef 16) #21
  br label %Vec_WecStart.exit

Vec_WecStart.exit:                                ; preds = %1, %5
  %8 = phi ptr [ %7, %5 ], [ null, %1 ]
  %9 = getelementptr inbounds nuw i8, ptr %3, i64 4
  %10 = getelementptr inbounds nuw i8, ptr %3, i64 8
  store ptr %8, ptr %10, align 8, !tbaa !79
  store i32 %2, ptr %9, align 4, !tbaa !77
  %11 = getelementptr inbounds nuw i8, ptr %0, i64 32
  %12 = load ptr, ptr %11, align 8, !tbaa !26
  %13 = getelementptr i8, ptr %12, i64 4
  %.val1214 = load i32, ptr %13, align 4, !tbaa !21
  %14 = icmp sgt i32 %.val1214, 0
  br i1 %14, label %.lr.ph, label %.critedge

.lr.ph:                                           ; preds = %Vec_WecStart.exit
  %15 = getelementptr i8, ptr %0, i64 8
  %16 = getelementptr i8, ptr %0, i64 16
  br label %17

17:                                               ; preds = %.lr.ph, %Mop_ManCountOnes.exit
  %indvars.iv = phi i64 [ 0, %.lr.ph ], [ %indvars.iv.next, %Mop_ManCountOnes.exit ]
  %18 = phi ptr [ %12, %.lr.ph ], [ %48, %Mop_ManCountOnes.exit ]
  %19 = getelementptr i8, ptr %18, i64 8
  %.val13 = load ptr, ptr %19, align 8, !tbaa !25
  %20 = getelementptr inbounds nuw i32, ptr %.val13, i64 %indvars.iv
  %21 = load i32, ptr %20, align 4, !tbaa !28
  %.val = load i32, ptr %15, align 8, !tbaa !12
  %.val11 = load ptr, ptr %16, align 8, !tbaa !19
  %22 = getelementptr i8, ptr %.val11, i64 8
  %.val11.val = load ptr, ptr %22, align 8, !tbaa !17
  %23 = mul nsw i32 %.val, %21
  %24 = sext i32 %23 to i64
  %25 = getelementptr inbounds i64, ptr %.val11.val, i64 %24
  %26 = icmp sgt i32 %.val, 0
  br i1 %26, label %.lr.ph.preheader.i, label %Mop_ManCountOnes.exit

.lr.ph.preheader.i:                               ; preds = %17
  %wide.trip.count.i = zext nneg i32 %.val to i64
  br label %.lr.ph.i

.lr.ph.i:                                         ; preds = %.lr.ph.i, %.lr.ph.preheader.i
  %indvars.iv.i = phi i64 [ 0, %.lr.ph.preheader.i ], [ %indvars.iv.next.i, %.lr.ph.i ]
  %.08.i = phi i32 [ 0, %.lr.ph.preheader.i ], [ %47, %.lr.ph.i ]
  %27 = getelementptr inbounds nuw i64, ptr %25, i64 %indvars.iv.i
  %28 = load i64, ptr %27, align 8, !tbaa !39
  %29 = lshr i64 %28, 1
  %30 = and i64 %29, 6148914691236517205
  %31 = sub i64 %28, %30
  %32 = and i64 %31, 3689348814741910323
  %33 = lshr i64 %31, 2
  %34 = and i64 %33, 3689348814741910323
  %35 = add nuw nsw i64 %34, %32
  %36 = lshr i64 %35, 4
  %37 = add nuw nsw i64 %36, %35
  %38 = and i64 %37, 1085102592571150095
  %39 = lshr i64 %38, 8
  %40 = add nuw nsw i64 %39, %38
  %41 = lshr i64 %40, 16
  %42 = add nuw nsw i64 %41, %40
  %43 = lshr i64 %42, 32
  %44 = add nuw nsw i64 %43, %42
  %45 = trunc i64 %44 to i32
  %46 = and i32 %45, 255
  %47 = add nuw nsw i32 %46, %.08.i
  %indvars.iv.next.i = add nuw nsw i64 %indvars.iv.i, 1
  %exitcond.not.i = icmp eq i64 %indvars.iv.next.i, %wide.trip.count.i
  br i1 %exitcond.not.i, label %Mop_ManCountOnes.exit, label %.lr.ph.i, !llvm.loop !49

Mop_ManCountOnes.exit:                            ; preds = %.lr.ph.i, %17
  %.0.lcssa.i = phi i32 [ 0, %17 ], [ %47, %.lr.ph.i ]
  tail call fastcc void @Vec_WecPush(ptr noundef nonnull %3, i32 noundef %.0.lcssa.i, i32 noundef %21)
  %indvars.iv.next = add nuw nsw i64 %indvars.iv, 1
  %48 = load ptr, ptr %11, align 8, !tbaa !26
  %49 = getelementptr i8, ptr %48, i64 4
  %.val12 = load i32, ptr %49, align 4, !tbaa !21
  %50 = sext i32 %.val12 to i64
  %51 = icmp slt i64 %indvars.iv.next, %50
  br i1 %51, label %17, label %.critedge, !llvm.loop !93

.critedge:                                        ; preds = %Mop_ManCountOnes.exit, %Vec_WecStart.exit
  ret ptr %3
}